(dp0
S'fff'
p1
(lp2
ccopy_reg
_reconstructor
p3
(csensor_msgs.msg._JointState
JointState
p4
c__builtin__
object
p5
Ntp6
Rp7
(lp8
g3
(cstd_msgs.msg._Header
Header
p9
g5
Ntp10
Rp11
(lp12
I126904
ag3
(cgenpy.rostime
Time
p13
g5
Ntp14
Rp15
(lp16
I1695737865
aI389205932
abaS''
p17
aba(lp18
S'shoulder_pan_joint'
p19
aS'shoulder_lift_joint'
p20
aS'elbow_joint'
p21
aS'wrist_1_joint'
p22
aS'wrist_2_joint'
p23
aS'wrist_3_joint'
p24
aa(F6.031663811107019
F-1.528070666706176
F1.9025485110141034
F-1.9452741711029278
F1.5699053056810741
F-1.3192750564758655
tp25
a(ta(tabag3
(cgeometry_msgs.msg._TransformStamped
TransformStamped
p26
g5
Ntp27
Rp28
(lp29
g3
(g9
g5
Ntp30
Rp31
(lp32
I0
ag3
(crospy.rostime
Time
p33
g5
Ntp34
Rp35
(lp36
I1695737865
aI288681030
abaS'base_link'
p37
abag1
ag3
(cgeometry_msgs.msg._Transform
Transform
p38
g5
Ntp39
Rp40
(lp41
g3
(cgeometry_msgs.msg._Vector3
Vector3
p42
g5
Ntp43
Rp44
(lp45
F0.6999967188245843
aF4.146165082107264e-05
aF0.7003254657866915
abag3
(cgeometry_msgs.msg._Quaternion
Quaternion
p46
g5
Ntp47
Rp48
(lp49
F-0.0004314926350538907
aF0.0001108775893625352
aF-1.1297681385431794e-07
aF0.9999999007601218
abababasS'hhh'
p50
(lp51
g3
(g4
g5
Ntp52
Rp53
(lp54
g3
(g9
g5
Ntp55
Rp56
(lp57
I126942
ag3
(g13
g5
Ntp58
Rp59
(lp60
I1695737869
aI188677072
abag17
aba(lp61
S'shoulder_pan_joint'
p62
aS'shoulder_lift_joint'
p63
aS'elbow_joint'
p64
aS'wrist_1_joint'
p65
aS'wrist_2_joint'
p66
aS'wrist_3_joint'
p67
aa(F6.031663811107019
F-1.528070666706176
F1.9025485110141034
F-1.9452741711029278
F1.5699053056810741
F-1.3192750564758655
tp68
a(ta(tabag3
(g26
g5
Ntp69
Rp70
(lp71
g3
(g9
g5
Ntp72
Rp73
(lp74
I0
ag3
(g33
g5
Ntp75
Rp76
(lp77
I1695737868
aI988743067
abaS'base_link'
p78
abag50
ag3
(g38
g5
Ntp79
Rp80
(lp81
g3
(g42
g5
Ntp82
Rp83
(lp84
F0.6999967188245843
aF4.146165082107264e-05
aF0.7003254657866915
abag3
(g46
g5
Ntp85
Rp86
(lp87
F-0.0004314926350538907
aF0.0001108775893625352
aF-1.1297681385431794e-07
aF0.9999999007601218
abababasS'wfasdfS'
p88
(lp89
g3
(g4
g5
Ntp90
Rp91
(lp92
g3
(g9
g5
Ntp93
Rp94
(lp95
I127423
ag3
(g13
g5
Ntp96
Rp97
(lp98
I1695737917
aI288882017
abag17
aba(lp99
S'shoulder_pan_joint'
p100
aS'shoulder_lift_joint'
p101
aS'elbow_joint'
p102
aS'wrist_1_joint'
p103
aS'wrist_2_joint'
p104
aS'wrist_3_joint'
p105
aa(F-0.037699111843079613
F-5.437468564833572
F-1.411831738523346
F3.577645713908291
F5.605857931065996
F-2.152619286239868
tp106
a(ta(tabag3
(g26
g5
Ntp107
Rp108
(lp109
g3
(g9
g5
Ntp110
Rp111
(lp112
I0
ag3
(g33
g5
Ntp113
Rp114
(lp115
I1695737917
aI88877916
abaS'base_link'
p116
abag88
ag3
(g38
g5
Ntp117
Rp118
(lp119
g3
(g42
g5
Ntp120
Rp121
(lp122
F0.9549200499660142
aF0.22914334338870876
aF0.1569928254686235
abag3
(g46
g5
Ntp123
Rp124
(lp125
F-0.48579063615502277
aF-0.4726166915280874
aF-0.732421204932655
aF0.06480817292704201
abababasS'aklfhlash'
p126
(lp127
g3
(g4
g5
Ntp128
Rp129
(lp130
g3
(g9
g5
Ntp131
Rp132
(lp133
I127313
ag3
(g13
g5
Ntp134
Rp135
(lp136
I1695737906
aI289005994
abag17
aba(lp137
S'shoulder_pan_joint'
p138
aS'shoulder_lift_joint'
p139
aS'elbow_joint'
p140
aS'wrist_1_joint'
p141
aS'wrist_2_joint'
p142
aS'wrist_3_joint'
p143
aa(F6.031663811107019
F5.176088056054885
F1.9025485110141034
F-1.9452741711029278
F-3.847822682117032
F-1.3192750564758655
tp144
a(ta(tabag3
(g26
g5
Ntp145
Rp146
(lp147
g3
(g9
g5
Ntp148
Rp149
(lp150
I0
ag3
(g33
g5
Ntp151
Rp152
(lp153
I1695737906
aI188713074
abaS'base_link'
p154
abag126
ag3
(g38
g5
Ntp155
Rp156
(lp157
g3
(g42
g5
Ntp158
Rp159
(lp160
F0.8100431769495415
aF-0.11989725878388449
aF0.34056921042835164
abag3
(g46
g5
Ntp161
Rp162
(lp163
F-0.44402356470192783
aF-0.08178189798475607
aF0.08753275084543415
aF-0.8879711778435353
abababas.